target datalayout = "e-m:e-p270:32:32-p271:32:32-p272:64:64-i64:64-i128:128-f80:128-n8:16:32:64-S128"
target triple = "x86_64-pc-linux-gnu"

%struct._Save_errno = type { i32 }

@_ZTISt16invalid_argument = external constant ptr
@.str.323 = private unnamed_addr constant [5 x i8] c"stol\00", align 1

; Function Attrs: mustprogress nounwind uwtable
define linkonce_odr dso_local noundef zeroext i1 @_ZZN9__gnu_cxx6__stoaIllcJiEEET0_PFT_PKT1_PPS3_DpT2_EPKcS5_PmS9_EN10_Range_chk6_S_chkElSt17integral_constantIbLb0EE(i64 noundef %0) #5 comdat align 2 {
  %2 = alloca i64, align 8
  store i64 %0, ptr %2, align 8
  ret i1 false
}

; Function Attrs: mustprogress nounwind uwtable
define linkonce_odr dso_local void @_ZZN9__gnu_cxx6__stoaIllcJiEEET0_PFT_PKT1_PPS3_DpT2_EPKcS5_PmS9_EN11_Save_errnoD2Ev(ptr noundef nonnull align 4 dereferenceable(4) %0) unnamed_addr #5 comdat align 2 {
  %2 = alloca ptr, align 8
  store ptr %0, ptr %2, align 8
  %3 = load ptr, ptr %2, align 8
  %4 = call ptr @__errno_location() #20
  %5 = load i32, ptr %4, align 4
  %6 = icmp eq i32 %5, 0
  br i1 %6, label %7, label %11

7:                                                ; preds = %1
  %8 = getelementptr inbounds %struct._Save_errno, ptr %3, i32 0, i32 0
  %9 = load i32, ptr %8, align 4
  %10 = call ptr @__errno_location() #20
  store i32 %9, ptr %10, align 4
  br label %11

11:                                               ; preds = %7, %1
  ret void
}

; Function Attrs: mustprogress nounwind uwtable
define linkonce_odr dso_local void @_ZZN9__gnu_cxx6__stoaIllcJiEEET0_PFT_PKT1_PPS3_DpT2_EPKcS5_PmS9_EN11_Save_errnoC2Ev(ptr noundef nonnull align 4 dereferenceable(4) %0) unnamed_addr #5 comdat align 2 {
  %2 = alloca ptr, align 8
  store ptr %0, ptr %2, align 8
  %3 = load ptr, ptr %2, align 8
  %4 = getelementptr inbounds %struct._Save_errno, ptr %3, i32 0, i32 0
  %5 = call ptr @__errno_location() #20
  %6 = load i32, ptr %5, align 4
  store i32 %6, ptr %4, align 4
  %7 = call ptr @__errno_location() #20
  store i32 0, ptr %7, align 4
  ret void
}

; Function Attrs: mustprogress uwtable
define linkonce_odr dso_local noundef i64 @_ZN9__gnu_cxx6__stoaIllcJiEEET0_PFT_PKT1_PPS3_DpT2_EPKcS5_PmS9_(ptr noundef %0, ptr noundef %1, ptr noundef %2, ptr noundef %3, i32 noundef %4) #4 comdat personality ptr @__gxx_personality_v0 {
  %6 = alloca ptr, align 8
  %7 = alloca ptr, align 8
  %8 = alloca ptr, align 8
  %9 = alloca ptr, align 8
  %10 = alloca i32, align 4
  %11 = alloca i64, align 8
  %12 = alloca ptr, align 8
  %13 = alloca %struct._Save_errno, align 4
  %14 = alloca i64, align 8
  %15 = alloca ptr, align 8
  %16 = alloca i32, align 4
  store ptr %0, ptr %6, align 8
  store ptr %1, ptr %7, align 8
  store ptr %2, ptr %8, align 8
  store ptr %3, ptr %9, align 8
  store i32 %4, ptr %10, align 4
  call void @_ZZN9__gnu_cxx6__stoaIllcJiEEET0_PFT_PKT1_PPS3_DpT2_EPKcS5_PmS9_EN11_Save_errnoC2Ev(ptr noundef nonnull align 4 dereferenceable(4) %13)
  %17 = load ptr, ptr %6, align 8
  %18 = load ptr, ptr %8, align 8
  %19 = load i32, ptr %10, align 4
  %20 = invoke noundef i64 %17(ptr noundef %18, ptr noundef %12, i32 noundef %19)
          to label %21 unwind label %28

21:                                               ; preds = %5
  store i64 %20, ptr %14, align 8
  %22 = load ptr, ptr %12, align 8
  %23 = load ptr, ptr %8, align 8
  %24 = icmp eq ptr %22, %23
  br i1 %24, label %25, label %32

25:                                               ; preds = %21
  %26 = load ptr, ptr %7, align 8
  invoke void @_ZSt24__throw_invalid_argumentPKc(ptr noundef %26) #19
          to label %27 unwind label %28

27:                                               ; preds = %25
  unreachable

28:                                               ; preds = %42, %36, %25, %5
  %29 = landingpad { ptr, i32 }
          cleanup
  %30 = extractvalue { ptr, i32 } %29, 0
  store ptr %30, ptr %15, align 8
  %31 = extractvalue { ptr, i32 } %29, 1
  store i32 %31, ptr %16, align 4
  call void @_ZZN9__gnu_cxx6__stoaIllcJiEEET0_PFT_PKT1_PPS3_DpT2_EPKcS5_PmS9_EN11_Save_errnoD2Ev(ptr noundef nonnull align 4 dereferenceable(4) %13) #3
  br label %60

32:                                               ; preds = %21
  %33 = call ptr @__errno_location() #20
  %34 = load i32, ptr %33, align 4
  %35 = icmp eq i32 %34, 34
  br i1 %35, label %40, label %36

36:                                               ; preds = %32
  %37 = load i64, ptr %14, align 8
  %38 = invoke noundef zeroext i1 @_ZZN9__gnu_cxx6__stoaIllcJiEEET0_PFT_PKT1_PPS3_DpT2_EPKcS5_PmS9_EN10_Range_chk6_S_chkElSt17integral_constantIbLb0EE(i64 noundef %37)
          to label %39 unwind label %28

39:                                               ; preds = %36
  br label %40

40:                                               ; preds = %39, %32
  %41 = phi i1 [ true, %32 ], [ %38, %39 ]
  br i1 %41, label %42, label %45

42:                                               ; preds = %40
  %43 = load ptr, ptr %7, align 8
  invoke void @_ZSt20__throw_out_of_rangePKc(ptr noundef %43) #19
          to label %44 unwind label %28

44:                                               ; preds = %42
  unreachable

45:                                               ; preds = %40
  %46 = load i64, ptr %14, align 8
  store i64 %46, ptr %11, align 8
  br label %47

47:                                               ; preds = %45
  br label %48

48:                                               ; preds = %47
  %49 = load ptr, ptr %9, align 8
  %50 = icmp ne ptr %49, null
  br i1 %50, label %51, label %58

51:                                               ; preds = %48
  %52 = load ptr, ptr %12, align 8
  %53 = load ptr, ptr %8, align 8
  %54 = ptrtoint ptr %52 to i64
  %55 = ptrtoint ptr %53 to i64
  %56 = sub i64 %54, %55
  %57 = load ptr, ptr %9, align 8
  store i64 %56, ptr %57, align 8
  br label %58

58:                                               ; preds = %51, %48
  %59 = load i64, ptr %11, align 8
  call void @_ZZN9__gnu_cxx6__stoaIllcJiEEET0_PFT_PKT1_PPS3_DpT2_EPKcS5_PmS9_EN11_Save_errnoD2Ev(ptr noundef nonnull align 4 dereferenceable(4) %13) #3
  ret i64 %59

60:                                               ; preds = %28
  %61 = load ptr, ptr %15, align 8
  %62 = load i32, ptr %16, align 4
  %63 = insertvalue { ptr, i32 } poison, ptr %61, 0
  %64 = insertvalue { ptr, i32 } %63, i32 %62, 1
  resume { ptr, i32 } %64
}

; Function Attrs: mustprogress uwtable
define linkonce_odr dso_local noundef i64 @_ZNSt7__cxx114stolERKNS_12basic_stringIcSt11char_traitsIcESaIcEEEPmi(ptr noundef nonnull align 8 dereferenceable(32) %0, ptr noundef %1, i32 noundef %2) #4 comdat {
  %4 = alloca ptr, align 8
  %5 = alloca ptr, align 8
  %6 = alloca i32, align 4
  store ptr %0, ptr %4, align 8
  store ptr %1, ptr %5, align 8
  store i32 %2, ptr %6, align 4
  %7 = load ptr, ptr %4, align 8
  %8 = call noundef ptr @_ZNKSt7__cxx1112basic_stringIcSt11char_traitsIcESaIcEE5c_strEv(ptr noundef nonnull align 8 dereferenceable(32) %7) #3
  %9 = load ptr, ptr %5, align 8
  %10 = load i32, ptr %6, align 4
  %11 = call noundef i64 @_ZN9__gnu_cxx6__stoaIllcJiEEET0_PFT_PKT1_PPS3_DpT2_EPKcS5_PmS9_(ptr noundef @strtol, ptr noundef @.str.323, ptr noundef %8, ptr noundef %9, i32 noundef %10)
  ret i64 %11
}

; Function Attrs: mustprogress uwtable
define internal noundef zeroext i1 @_ZN12_GLOBAL__N_118GetNumericArgumentERKNSt7__cxx1112basic_stringIcSt11char_traitsIcESaIcEEERl(ptr noundef nonnull align 8 dereferenceable(32) %0, ptr noundef nonnull align 8 dereferenceable(8) %1) #4 personality ptr @__gxx_personality_v0 {
  %3 = alloca i1, align 1
  %4 = alloca ptr, align 8
  %5 = alloca ptr, align 8
  %6 = alloca i64, align 8
  %7 = alloca ptr, align 8
  %8 = alloca i32, align 4
  %9 = alloca ptr, align 8
  store ptr %0, ptr %4, align 8
  store ptr %1, ptr %5, align 8
  %10 = load ptr, ptr %4, align 8
  %11 = invoke noundef i64 @_ZNSt7__cxx114stolERKNS_12basic_stringIcSt11char_traitsIcESaIcEEEPmi(ptr noundef nonnull align 8 dereferenceable(32) %10, ptr noundef %6, i32 noundef 10)
          to label %12 unwind label %19

12:                                               ; preds = %2
  %13 = load ptr, ptr %5, align 8
  store i64 %11, ptr %13, align 8
  %14 = load i64, ptr %6, align 8
  %15 = load ptr, ptr %4, align 8
  %16 = call noundef i64 @_ZNKSt7__cxx1112basic_stringIcSt11char_traitsIcESaIcEE6lengthEv(ptr noundef nonnull align 8 dereferenceable(32) %15) #3
  %17 = icmp ne i64 %14, %16
  br i1 %17, label %18, label %30

18:                                               ; preds = %12
  store i1 false, ptr %3, align 1
  br label %32

19:                                               ; preds = %2
  %20 = landingpad { ptr, i32 }
          catch ptr @_ZTISt16invalid_argument
  %21 = extractvalue { ptr, i32 } %20, 0
  store ptr %21, ptr %7, align 8
  %22 = extractvalue { ptr, i32 } %20, 1
  store i32 %22, ptr %8, align 4
  br label %23

23:                                               ; preds = %19
  %24 = load i32, ptr %8, align 4
  %25 = call i32 @llvm.eh.typeid.for(ptr @_ZTISt16invalid_argument) #3
  %26 = icmp eq i32 %24, %25
  br i1 %26, label %27, label %34

27:                                               ; preds = %23
  %28 = load ptr, ptr %7, align 8
  %29 = call ptr @__cxa_begin_catch(ptr %28) #3
  store ptr %29, ptr %9, align 8
  store i1 false, ptr %3, align 1
  call void @__cxa_end_catch()
  br label %32

30:                                               ; preds = %12
  br label %31

31:                                               ; preds = %30
  store i1 true, ptr %3, align 1
  br label %32

32:                                               ; preds = %31, %27, %18
  %33 = load i1, ptr %3, align 1
  ret i1 %33

34:                                               ; preds = %23
  %35 = load ptr, ptr %7, align 8
  %36 = load i32, ptr %8, align 4
  %37 = insertvalue { ptr, i32 } poison, ptr %35, 0
  %38 = insertvalue { ptr, i32 } %37, i32 %36, 1
  resume { ptr, i32 } %38
}